target datalayout = "e-m:e-p270:32:32-p271:32:32-p272:64:64-i64:64-i128:128-f80:128-n8:16:32:64-S128"
target triple = "x86_64-pc-linux-gnu"

%struct.strbuf = type { i64, i64, ptr }
%struct.child_process = type { %struct.strvec, %struct.strvec, i32, i32, i64, ptr, ptr, i32, i32, i32, ptr, i16, ptr }
%struct.strvec = type { ptr, i64, i64 }

@__const.fn_child_start_fl.buf_payload = private unnamed_addr constant %struct.strbuf { i64 0, i64 0, ptr @strbuf_slopbuf }, align 8
@.str.18 = private unnamed_addr constant [16 x i8] c"child_start[%d]\00", align 1
@.str.19 = private unnamed_addr constant [5 x i8] c" cd \00", align 1
@.str.20 = private unnamed_addr constant [2 x i8] c";\00", align 1
@.str.21 = private unnamed_addr constant [5 x i8] c"git \00", align 1

; Function Attrs: inlinehint nounwind uwtable
define internal i64 @strbuf_avail(ptr noundef %0) #4 {
  %2 = alloca ptr, align 8
  store ptr %0, ptr %2, align 8, !tbaa !74
  %3 = load ptr, ptr %2, align 8, !tbaa !74
  %4 = getelementptr inbounds nuw %struct.strbuf, ptr %3, i32 0, i32 0
  %5 = load i64, ptr %4, align 8, !tbaa !79
  %6 = icmp ne i64 %5, 0
  br i1 %6, label %7, label %16

7:                                                ; preds = %1
  %8 = load ptr, ptr %2, align 8, !tbaa !74
  %9 = getelementptr inbounds nuw %struct.strbuf, ptr %8, i32 0, i32 0
  %10 = load i64, ptr %9, align 8, !tbaa !79
  %11 = load ptr, ptr %2, align 8, !tbaa !74
  %12 = getelementptr inbounds nuw %struct.strbuf, ptr %11, i32 0, i32 1
  %13 = load i64, ptr %12, align 8, !tbaa !76
  %14 = sub i64 %10, %13
  %15 = sub i64 %14, 1
  br label %17

16:                                               ; preds = %1
  br label %17

17:                                               ; preds = %16, %7
  %18 = phi i64 [ %15, %7 ], [ 0, %16 ]
  ret i64 %18
}

; Function Attrs: inlinehint nounwind uwtable
define internal void @strbuf_addch(ptr noundef %0, i32 noundef %1) #4 {
  %3 = alloca ptr, align 8
  %4 = alloca i32, align 4
  store ptr %0, ptr %3, align 8, !tbaa !74
  store i32 %1, ptr %4, align 4, !tbaa !4
  %5 = load ptr, ptr %3, align 8, !tbaa !74
  %6 = call i64 @strbuf_avail(ptr noundef %5)
  %7 = icmp ne i64 %6, 0
  br i1 %7, label %10, label %8

8:                                                ; preds = %2
  %9 = load ptr, ptr %3, align 8, !tbaa !74
  call void @strbuf_grow(ptr noundef %9, i64 noundef 1)
  br label %10

10:                                               ; preds = %8, %2
  %11 = load i32, ptr %4, align 4, !tbaa !4
  %12 = trunc i32 %11 to i8
  %13 = load ptr, ptr %3, align 8, !tbaa !74
  %14 = getelementptr inbounds nuw %struct.strbuf, ptr %13, i32 0, i32 2
  %15 = load ptr, ptr %14, align 8, !tbaa !80
  %16 = load ptr, ptr %3, align 8, !tbaa !74
  %17 = getelementptr inbounds nuw %struct.strbuf, ptr %16, i32 0, i32 1
  %18 = load i64, ptr %17, align 8, !tbaa !76
  %19 = add i64 %18, 1
  store i64 %19, ptr %17, align 8, !tbaa !76
  %20 = getelementptr inbounds nuw i8, ptr %15, i64 %18
  store i8 %12, ptr %20, align 1, !tbaa !11
  %21 = load ptr, ptr %3, align 8, !tbaa !74
  %22 = getelementptr inbounds nuw %struct.strbuf, ptr %21, i32 0, i32 2
  %23 = load ptr, ptr %22, align 8, !tbaa !80
  %24 = load ptr, ptr %3, align 8, !tbaa !74
  %25 = getelementptr inbounds nuw %struct.strbuf, ptr %24, i32 0, i32 1
  %26 = load i64, ptr %25, align 8, !tbaa !76
  %27 = getelementptr inbounds nuw i8, ptr %23, i64 %26
  store i8 0, ptr %27, align 1, !tbaa !11
  ret void
}

; Function Attrs: inlinehint nounwind uwtable
define internal void @strbuf_addstr(ptr noundef %0, ptr noundef %1) #4 {
  %3 = alloca ptr, align 8
  %4 = alloca ptr, align 8
  store ptr %0, ptr %3, align 8, !tbaa !74
  store ptr %1, ptr %4, align 8, !tbaa !8
  %5 = load ptr, ptr %3, align 8, !tbaa !74
  %6 = load ptr, ptr %4, align 8, !tbaa !8
  %7 = load ptr, ptr %4, align 8, !tbaa !8
  %8 = call i64 @strlen(ptr noundef %7) #11
  call void @strbuf_add(ptr noundef %5, ptr noundef %6, i64 noundef %8)
  ret void
}

; Function Attrs: nounwind uwtable
define internal void @fn_child_start_fl(ptr noundef %0, i32 noundef %1, i64 noundef %2, ptr noundef %3) #0 {
  %5 = alloca ptr, align 8
  %6 = alloca i32, align 4
  %7 = alloca i64, align 8
  %8 = alloca ptr, align 8
  %9 = alloca %struct.strbuf, align 8
  store ptr %0, ptr %5, align 8, !tbaa !8
  store i32 %1, ptr %6, align 4, !tbaa !4
  store i64 %2, ptr %7, align 8, !tbaa !12
  store ptr %3, ptr %8, align 8, !tbaa !22
  call void @llvm.lifetime.start.p0(i64 24, ptr %9) #9
  call void @llvm.memcpy.p0.p0.i64(ptr align 8 %9, ptr align 8 @__const.fn_child_start_fl.buf_payload, i64 24, i1 false)
  %10 = load ptr, ptr %8, align 8, !tbaa !22
  %11 = getelementptr inbounds nuw %struct.child_process, ptr %10, i32 0, i32 3
  %12 = load i32, ptr %11, align 4, !tbaa !24
  call void (ptr, ptr, ...) @strbuf_addf(ptr noundef %9, ptr noundef @.str.18, i32 noundef %12)
  %13 = load ptr, ptr %8, align 8, !tbaa !22
  %14 = getelementptr inbounds nuw %struct.child_process, ptr %13, i32 0, i32 10
  %15 = load ptr, ptr %14, align 8, !tbaa !27
  %16 = icmp ne ptr %15, null
  br i1 %16, label %17, label %21

17:                                               ; preds = %4
  call void @strbuf_addstr(ptr noundef %9, ptr noundef @.str.19)
  %18 = load ptr, ptr %8, align 8, !tbaa !22
  %19 = getelementptr inbounds nuw %struct.child_process, ptr %18, i32 0, i32 10
  %20 = load ptr, ptr %19, align 8, !tbaa !27
  call void @sq_quote_buf_pretty(ptr noundef %9, ptr noundef %20)
  call void @strbuf_addstr(ptr noundef %9, ptr noundef @.str.20)
  br label %21

21:                                               ; preds = %17, %4
  call void @strbuf_addch(ptr noundef %9, i32 noundef 32)
  %22 = load ptr, ptr %8, align 8, !tbaa !22
  %23 = getelementptr inbounds nuw %struct.child_process, ptr %22, i32 0, i32 11
  %24 = load i16, ptr %23, align 8
  %25 = lshr i16 %24, 3
  %26 = and i16 %25, 1
  %27 = zext i16 %26 to i32
  %28 = icmp ne i32 %27, 0
  br i1 %28, label %29, label %30

29:                                               ; preds = %21
  call void @strbuf_addstr(ptr noundef %9, ptr noundef @.str.21)
  br label %30

30:                                               ; preds = %29, %21
  %31 = load ptr, ptr %8, align 8, !tbaa !22
  %32 = getelementptr inbounds nuw %struct.child_process, ptr %31, i32 0, i32 0
  %33 = getelementptr inbounds nuw %struct.strvec, ptr %32, i32 0, i32 0
  %34 = load ptr, ptr %33, align 8, !tbaa !28
  call void @sq_append_quote_argv_pretty(ptr noundef %9, ptr noundef %34)
  %35 = load ptr, ptr %5, align 8, !tbaa !8
  %36 = load i32, ptr %6, align 4, !tbaa !4
  call void @normal_io_write_fl(ptr noundef %35, i32 noundef %36, ptr noundef %9)
  call void @strbuf_release(ptr noundef %9)
  call void @llvm.lifetime.end.p0(i64 24, ptr %9) #9
  ret void
}