; Function Attrs: nounwind uwtable
define internal void @fn_child_start_fl(ptr noundef %0, i32 noundef %1, i64 %2, ptr noundef readonly captures(none) %3) #0 {
  %5 = alloca %struct.strbuf, align 8
  call void @llvm.lifetime.start.p0(i64 24, ptr nonnull %5) #7
  call void @llvm.memcpy.p0.p0.i64(ptr noundef nonnull align 8 dereferenceable(24) %5, ptr noundef nonnull align 8 dereferenceable(24) @__const.fn_counter.buf_payload, i64 24, i1 false)
  %6 = getelementptr inbounds nuw i8, ptr %3, i64 52
  %7 = load i32, ptr %6, align 4, !tbaa !19
  call void (ptr, ptr, ...) @strbuf_addf(ptr noundef nonnull %5, ptr noundef nonnull @.str.18, i32 noundef %7) #7
  %8 = getelementptr inbounds nuw i8, ptr %3, i64 96
  %9 = load ptr, ptr %8, align 8, !tbaa !23
  %.not = icmp eq ptr %9, null
  br i1 %.not, label %12, label %10

10:                                               ; preds = %4
  call void @strbuf_add(ptr noundef nonnull %5, ptr noundef nonnull @.str.19, i64 noundef 4) #7
  %11 = load ptr, ptr %8, align 8, !tbaa !23
  call void @sq_quote_buf_pretty(ptr noundef nonnull %5, ptr noundef %11) #7
  call void @strbuf_add(ptr noundef nonnull %5, ptr noundef nonnull @.str.20, i64 noundef 1) #7
  br label %12

12:                                               ; preds = %10, %4
  %13 = load i64, ptr %5, align 8, !tbaa !9
  %.not.i.i = icmp eq i64 %13, 0
  br i1 %.not.i.i, label %strbuf_avail.exit.thread.i, label %strbuf_avail.exit.i

strbuf_avail.exit.i:                              ; preds = %12
  %14 = getelementptr inbounds nuw i8, ptr %5, i64 8
  %15 = load i64, ptr %14, align 8, !tbaa !14
  %.neg.i = add i64 %15, 1
  %.not.i = icmp eq i64 %13, %.neg.i
  br i1 %.not.i, label %strbuf_avail.exit.thread.i, label %strbuf_addch.exit

strbuf_avail.exit.thread.i:                       ; preds = %strbuf_avail.exit.i, %12
  call void @strbuf_grow(ptr noundef nonnull %5, i64 noundef 1) #7
  %.phi.trans.insert.i = getelementptr inbounds nuw i8, ptr %5, i64 8
  %.pre.i = load i64, ptr %.phi.trans.insert.i, align 8, !tbaa !14
  %.pre7.i = add i64 %.pre.i, 1
  br label %strbuf_addch.exit

strbuf_addch.exit:                                ; preds = %strbuf_avail.exit.i, %strbuf_avail.exit.thread.i
  %.pre-phi.i = phi i64 [ %.pre7.i, %strbuf_avail.exit.thread.i ], [ %.neg.i, %strbuf_avail.exit.i ]
  %16 = phi i64 [ %.pre.i, %strbuf_avail.exit.thread.i ], [ %15, %strbuf_avail.exit.i ]
  %17 = getelementptr inbounds nuw i8, ptr %5, i64 16
  %18 = load ptr, ptr %17, align 8, !tbaa !15
  %19 = getelementptr inbounds nuw i8, ptr %5, i64 8
  store i64 %.pre-phi.i, ptr %19, align 8, !tbaa !14
  %20 = getelementptr inbounds nuw i8, ptr %18, i64 %16
  store i8 32, ptr %20, align 1, !tbaa !4
  %21 = load ptr, ptr %17, align 8, !tbaa !15
  %22 = load i64, ptr %19, align 8, !tbaa !14
  %23 = getelementptr inbounds nuw i8, ptr %21, i64 %22
  store i8 0, ptr %23, align 1, !tbaa !4
  %24 = getelementptr inbounds nuw i8, ptr %3, i64 104
  %25 = load i16, ptr %24, align 8
  %26 = and i16 %25, 8
  %.not6 = icmp eq i16 %26, 0
  br i1 %.not6, label %28, label %27

27:                                               ; preds = %strbuf_addch.exit
  call void @strbuf_add(ptr noundef nonnull %5, ptr noundef nonnull @.str.21, i64 noundef 4) #7
  br label %28

28:                                               ; preds = %27, %strbuf_addch.exit
  %29 = load ptr, ptr %3, align 8, !tbaa !24
  call void @sq_append_quote_argv_pretty(ptr noundef nonnull %5, ptr noundef %29) #7
  call fastcc void @normal_io_write_fl(ptr noundef %0, i32 noundef %1, ptr noundef %5)
  call void @strbuf_release(ptr noundef nonnull %5) #7
  call void @llvm.lifetime.end.p0(i64 24, ptr nonnull %5) #7
  ret void
}